; ModuleID = 'source-C-CXX/27/65.c'
source_filename = "source-C-CXX/27/65.c"
target datalayout = "e-m:e-p270:32:32-p271:32:32-p272:64:64-i64:64-f80:128-n8:16:32:64-S128"
target triple = "x86_64-pc-linux-gnu"

@.str = private unnamed_addr constant [3 x i8] c"%d\00", align 1
@.str.1 = private unnamed_addr constant [4 x i8] c",%d\00", align 1

; Function Attrs: nounwind sspstrong uwtable
define dso_local void @main() local_unnamed_addr #0 {
  %1 = alloca [3000 x i8], align 16
  %2 = getelementptr inbounds [3000 x i8], [3000 x i8]* %1, i64 0, i64 0
  call void @llvm.lifetime.start.p0i8(i64 3000, i8* nonnull %2) #5
  %3 = call i32 (i8*, ...) bitcast (i32 (...)* @gets to i32 (i8*, ...)*)(i8* nonnull %2) #5
  %4 = call i64 @strlen(i8* noundef nonnull %2) #6
  %5 = trunc i64 %4 to i32
  %6 = shl i64 %4, 32
  %7 = ashr exact i64 %6, 32
  %8 = getelementptr inbounds [3000 x i8], [3000 x i8]* %1, i64 0, i64 %7
  store i8 0, i8* %8, align 1, !tbaa !5
  br label %9

9:                                                ; preds = %21, %0
  %10 = phi i64 [ %22, %21 ], [ 0, %0 ]
  %11 = getelementptr inbounds [3000 x i8], [3000 x i8]* %1, i64 0, i64 %10
  %12 = load i8, i8* %11, align 1, !tbaa !5
  switch i8 %12, label %21 [
    i8 32, label %13
    i8 0, label %13
  ]

13:                                               ; preds = %9, %9
  %14 = trunc i64 %10 to i32
  %15 = call i32 (i8*, ...) @printf(i8* nonnull dereferenceable(1) getelementptr inbounds ([3 x i8], [3 x i8]* @.str, i64 0, i64 0), i32 %14)
  %16 = add nuw nsw i32 %14, 1
  %17 = icmp slt i32 %16, %5
  br i1 %17, label %18, label %49

18:                                               ; preds = %13
  %19 = and i64 %10, 4294967295
  %20 = add nuw nsw i64 %19, 1
  br label %23

21:                                               ; preds = %9
  %22 = add nuw i64 %10, 1
  br label %9

23:                                               ; preds = %18, %47
  %24 = phi i64 [ %20, %18 ], [ %32, %47 ]
  %25 = phi i32 [ %16, %18 ], [ %41, %47 ]
  %26 = phi i32 [ 0, %18 ], [ %40, %47 ]
  %27 = getelementptr inbounds [3000 x i8], [3000 x i8]* %1, i64 0, i64 %24
  %28 = load i8, i8* %27, align 1, !tbaa !5
  %29 = icmp eq i8 %28, 32
  %30 = add nsw i32 %26, 1
  %31 = select i1 %29, i32 %26, i32 %30
  %32 = add nuw nsw i64 %24, 1
  br i1 %29, label %33, label %39

33:                                               ; preds = %23
  %34 = getelementptr inbounds [3000 x i8], [3000 x i8]* %1, i64 0, i64 %32
  %35 = load i8, i8* %34, align 1, !tbaa !5
  %36 = icmp eq i8 %35, 32
  br i1 %36, label %39, label %37

37:                                               ; preds = %33
  %38 = call i32 (i8*, ...) @printf(i8* nonnull dereferenceable(1) getelementptr inbounds ([4 x i8], [4 x i8]* @.str.1, i64 0, i64 0), i32 %31)
  br label %39

39:                                               ; preds = %23, %37, %33
  %40 = phi i32 [ 0, %37 ], [ %26, %33 ], [ %30, %23 ]
  %41 = add nsw i32 %25, 1
  %42 = getelementptr inbounds [3000 x i8], [3000 x i8]* %1, i64 0, i64 %32
  %43 = load i8, i8* %42, align 1, !tbaa !5
  %44 = icmp eq i8 %43, 0
  br i1 %44, label %45, label %47

45:                                               ; preds = %39
  %46 = call i32 (i8*, ...) @printf(i8* nonnull dereferenceable(1) getelementptr inbounds ([4 x i8], [4 x i8]* @.str.1, i64 0, i64 0), i32 %40)
  br label %47

47:                                               ; preds = %39, %45
  %48 = icmp eq i32 %41, %5
  br i1 %48, label %49, label %23, !llvm.loop !8

49:                                               ; preds = %47, %13
  call void @llvm.lifetime.end.p0i8(i64 3000, i8* nonnull %2) #5
  ret void
}

; Function Attrs: argmemonly mustprogress nofree nosync nounwind willreturn
declare void @llvm.lifetime.start.p0i8(i64 immarg, i8* nocapture) #1

declare i32 @gets(...) local_unnamed_addr #2

; Function Attrs: argmemonly mustprogress nofree nounwind readonly willreturn
declare i64 @strlen(i8* nocapture) local_unnamed_addr #3

; Function Attrs: nofree nounwind
declare noundef i32 @printf(i8* nocapture noundef readonly, ...) local_unnamed_addr #4

; Function Attrs: argmemonly mustprogress nofree nosync nounwind willreturn
declare void @llvm.lifetime.end.p0i8(i64 immarg, i8* nocapture) #1


!llvm.module.flags = !{!0, !1, !2, !3}
!llvm.ident = !{!4}

!0 = !{i32 1, !"wchar_size", i32 4}
!1 = !{i32 7, !"PIC Level", i32 2}
!2 = !{i32 7, !"PIE Level", i32 2}
!3 = !{i32 7, !"uwtable", i32 1}
!4 = !{!"clang version 13.0.0"}
!5 = !{!6, !6, i64 0}
!6 = !{!"omnipotent char", !7, i64 0}
!7 = !{!"Simple C/C++ TBAA"}
!8 = distinct !{!8, !9}
!9 = !{!"llvm.loop.mustprogress"}
